target datalayout = "e-m:e-p270:32:32-p271:32:32-p272:64:64-i64:64-i128:128-f80:128-n8:16:32:64-S128"
target triple = "x86_64-pc-linux-gnu"

@proto_atm = internal global i32 0, align 4
@proto_ilmi = internal global i32 0, align 4
@proto_atm_lane = internal global i32 0, align 4
@.str.163 = private unnamed_addr constant [14 x i8] c"atm.aal5.type\00", align 1
@atm_handle = internal global ptr null, align 8
@atm_untruncated_handle = internal global ptr null, align 8
@.str.181 = private unnamed_addr constant [15 x i8] c"eth_withoutfcs\00", align 1
@eth_withoutfcs_handle = internal global ptr null, align 8
@.str.182 = private unnamed_addr constant [3 x i8] c"tr\00", align 1
@tr_handle = internal global ptr null, align 8
@.str.183 = private unnamed_addr constant [3 x i8] c"fr\00", align 1
@fr_handle = internal global ptr null, align 8
@.str.184 = private unnamed_addr constant [4 x i8] c"llc\00", align 1
@llc_handle = internal global ptr null, align 8
@.str.185 = private unnamed_addr constant [6 x i8] c"sscop\00", align 1
@sscop_handle = internal global ptr null, align 8
@.str.186 = private unnamed_addr constant [4 x i8] c"ppp\00", align 1
@ppp_handle = internal global ptr null, align 8
@.str.187 = private unnamed_addr constant [13 x i8] c"eth_maybefcs\00", align 1
@eth_maybefcs_handle = internal global ptr null, align 8
@.str.188 = private unnamed_addr constant [3 x i8] c"ip\00", align 1
@ip_handle = internal global ptr null, align 8
@.str.189 = private unnamed_addr constant [11 x i8] c"wtap_encap\00", align 1

; Function Attrs: null_pointer_is_valid sspstrong uwtable
define hidden void @proto_reg_handoff_atm() #1 {
  %1 = alloca ptr, align 8
  call void @llvm.lifetime.start.p0(i64 8, ptr %1) #9
  %2 = load i32, ptr @proto_atm_lane, align 4
  %3 = call ptr @find_dissector_add_dependency(ptr noundef @.str.181, i32 noundef %2)
  store ptr %3, ptr @eth_withoutfcs_handle, align 8
  %4 = load i32, ptr @proto_atm_lane, align 4
  %5 = call ptr @find_dissector_add_dependency(ptr noundef @.str.182, i32 noundef %4)
  store ptr %5, ptr @tr_handle, align 8
  %6 = load i32, ptr @proto_atm, align 4
  %7 = call ptr @find_dissector_add_dependency(ptr noundef @.str.183, i32 noundef %6)
  store ptr %7, ptr @fr_handle, align 8
  %8 = load i32, ptr @proto_atm, align 4
  %9 = call ptr @find_dissector_add_dependency(ptr noundef @.str.184, i32 noundef %8)
  store ptr %9, ptr @llc_handle, align 8
  %10 = load i32, ptr @proto_atm, align 4
  %11 = call ptr @find_dissector_add_dependency(ptr noundef @.str.185, i32 noundef %10)
  store ptr %11, ptr @sscop_handle, align 8
  %12 = load i32, ptr @proto_atm, align 4
  %13 = call ptr @find_dissector_add_dependency(ptr noundef @.str.186, i32 noundef %12)
  store ptr %13, ptr @ppp_handle, align 8
  %14 = load i32, ptr @proto_atm, align 4
  %15 = call ptr @find_dissector_add_dependency(ptr noundef @.str.187, i32 noundef %14)
  store ptr %15, ptr @eth_maybefcs_handle, align 8
  %16 = load i32, ptr @proto_atm, align 4
  %17 = call ptr @find_dissector_add_dependency(ptr noundef @.str.188, i32 noundef %16)
  store ptr %17, ptr @ip_handle, align 8
  %18 = load ptr, ptr @atm_handle, align 8
  call void @dissector_add_uint(ptr noundef @.str.189, i32 noundef 13, ptr noundef %18)
  %19 = load i32, ptr @proto_atm_lane, align 4
  %20 = call ptr @create_dissector_handle(ptr noundef @dissect_lane, i32 noundef %19)
  call void @dissector_add_uint(ptr noundef @.str.163, i32 noundef 3, ptr noundef %20)
  %21 = load i32, ptr @proto_ilmi, align 4
  %22 = call ptr @create_dissector_handle(ptr noundef @dissect_ilmi, i32 noundef %21)
  call void @dissector_add_uint(ptr noundef @.str.163, i32 noundef 4, ptr noundef %22)
  %23 = load ptr, ptr @atm_untruncated_handle, align 8
  call void @dissector_add_uint(ptr noundef @.str.189, i32 noundef 14, ptr noundef %23)
  %24 = load i32, ptr @proto_atm, align 4
  %25 = call ptr @create_capture_dissector_handle(ptr noundef @capture_atm, i32 noundef %24)
  store ptr %25, ptr %1, align 8
  %26 = load ptr, ptr %1, align 8
  call void @capture_dissector_add_uint(ptr noundef @.str.189, i32 noundef 13, ptr noundef %26)
  %27 = load i32, ptr @proto_atm_lane, align 4
  %28 = call ptr @create_capture_dissector_handle(ptr noundef @capture_lane, i32 noundef %27)
  store ptr %28, ptr %1, align 8
  %29 = load ptr, ptr %1, align 8
  call void @capture_dissector_add_uint(ptr noundef @.str.163, i32 noundef 3, ptr noundef %29)
  call void @llvm.lifetime.end.p0(i64 8, ptr %1) #9
  ret void
}