; Function Attrs: null_pointer_is_valid sspstrong uwtable
define hidden void @proto_reg_handoff_atm() local_unnamed_addr #1 {
  %1 = load i32, ptr @proto_atm_lane, align 4
  %2 = tail call ptr @find_dissector_add_dependency(ptr noundef nonnull @.str.181, i32 noundef %1)
  store ptr %2, ptr @eth_withoutfcs_handle, align 8
  %3 = load i32, ptr @proto_atm_lane, align 4
  %4 = tail call ptr @find_dissector_add_dependency(ptr noundef nonnull @.str.182, i32 noundef %3)
  store ptr %4, ptr @tr_handle, align 8
  %5 = load i32, ptr @proto_atm, align 4
  %6 = tail call ptr @find_dissector_add_dependency(ptr noundef nonnull @.str.183, i32 noundef %5)
  store ptr %6, ptr @fr_handle, align 8
  %7 = load i32, ptr @proto_atm, align 4
  %8 = tail call ptr @find_dissector_add_dependency(ptr noundef nonnull @.str.184, i32 noundef %7)
  store ptr %8, ptr @llc_handle, align 8
  %9 = load i32, ptr @proto_atm, align 4
  %10 = tail call ptr @find_dissector_add_dependency(ptr noundef nonnull @.str.185, i32 noundef %9)
  store ptr %10, ptr @sscop_handle, align 8
  %11 = load i32, ptr @proto_atm, align 4
  %12 = tail call ptr @find_dissector_add_dependency(ptr noundef nonnull @.str.186, i32 noundef %11)
  store ptr %12, ptr @ppp_handle, align 8
  %13 = load i32, ptr @proto_atm, align 4
  %14 = tail call ptr @find_dissector_add_dependency(ptr noundef nonnull @.str.187, i32 noundef %13)
  store ptr %14, ptr @eth_maybefcs_handle, align 8
  %15 = load i32, ptr @proto_atm, align 4
  %16 = tail call ptr @find_dissector_add_dependency(ptr noundef nonnull @.str.188, i32 noundef %15)
  store ptr %16, ptr @ip_handle, align 8
  %17 = load ptr, ptr @atm_handle, align 8
  tail call void @dissector_add_uint(ptr noundef nonnull @.str.189, i32 noundef 13, ptr noundef %17)
  %18 = load i32, ptr @proto_atm_lane, align 4
  %19 = tail call ptr @create_dissector_handle(ptr noundef nonnull @dissect_lane, i32 noundef %18)
  tail call void @dissector_add_uint(ptr noundef nonnull @.str.163, i32 noundef 3, ptr noundef %19)
  %20 = load i32, ptr @proto_ilmi, align 4
  %21 = tail call ptr @create_dissector_handle(ptr noundef nonnull @dissect_ilmi, i32 noundef %20)
  tail call void @dissector_add_uint(ptr noundef nonnull @.str.163, i32 noundef 4, ptr noundef %21)
  %22 = load ptr, ptr @atm_untruncated_handle, align 8
  tail call void @dissector_add_uint(ptr noundef nonnull @.str.189, i32 noundef 14, ptr noundef %22)
  %23 = load i32, ptr @proto_atm, align 4
  %24 = tail call ptr @create_capture_dissector_handle(ptr noundef nonnull @capture_atm, i32 noundef %23)
  tail call void @capture_dissector_add_uint(ptr noundef nonnull @.str.189, i32 noundef 13, ptr noundef %24)
  %25 = load i32, ptr @proto_atm_lane, align 4
  %26 = tail call ptr @create_capture_dissector_handle(ptr noundef nonnull @capture_lane, i32 noundef %25)
  tail call void @capture_dissector_add_uint(ptr noundef nonnull @.str.163, i32 noundef 3, ptr noundef %26)
  ret void
}